target datalayout = "e-m:e-p270:32:32-p271:32:32-p272:64:64-i64:64-i128:128-f80:128-n8:16:32:64-S128"
target triple = "x86_64-pc-linux-gnu"

%struct.mi_memid_s = type { %union.anon, i8, i8, i8, i32 }
%union.anon = type { %struct.mi_memid_os_info }
%struct.mi_memid_os_info = type { ptr, i64 }

; Function Attrs: inlinehint nounwind uwtable
define internal zeroext i1 @mi_memkind_is_os(i32 noundef %0) #4 {
  %2 = alloca i32, align 4
  store i32 %0, ptr %2, align 4, !tbaa !52
  %3 = load i32, ptr %2, align 4, !tbaa !52
  %4 = icmp uge i32 %3, 3
  br i1 %4, label %5, label %8

5:                                                ; preds = %1
  %6 = load i32, ptr %2, align 4, !tbaa !52
  %7 = icmp ule i32 %6, 5
  br label %8

8:                                                ; preds = %5, %1
  %9 = phi i1 [ false, %1 ], [ %7, %5 ]
  ret i1 %9
}

; Function Attrs: nounwind uwtable
define hidden void @_mi_arena_meta_free(ptr noundef %0, ptr noundef byval(%struct.mi_memid_s) align 8 %1, i64 noundef %2) #0 {
  %4 = alloca ptr, align 8
  %5 = alloca i64, align 8
  store ptr %0, ptr %4, align 8, !tbaa !53
  store i64 %2, ptr %5, align 8, !tbaa !15
  %6 = getelementptr inbounds nuw %struct.mi_memid_s, ptr %1, i32 0, i32 4
  %7 = load i32, ptr %6, align 4, !tbaa !59
  %8 = call zeroext i1 @mi_memkind_is_os(i32 noundef %7) #12
  br i1 %8, label %9, label %12

9:                                                ; preds = %3
  %10 = load ptr, ptr %4, align 8, !tbaa !53
  %11 = load i64, ptr %5, align 8, !tbaa !15
  call void @_mi_os_free(ptr noundef %10, i64 noundef %11, ptr noundef byval(%struct.mi_memid_s) align 8 %1) #12
  br label %13

12:                                               ; preds = %3
  br label %13

13:                                               ; preds = %12, %9
  ret void
}