; Function Attrs: nounwind uwtable
define hidden void @_mi_arena_meta_free(ptr noundef %0, ptr noundef readonly byval(%struct.mi_memid_s) align 8 captures(none) %1, i64 noundef %2) local_unnamed_addr #0 {
  %4 = getelementptr inbounds nuw i8, ptr %1, i64 20
  %5 = load i32, ptr %4, align 4, !tbaa !46
  %6 = add i32 %5, -3
  %7 = icmp ult i32 %6, 3
  br i1 %7, label %8, label %9

8:                                                ; preds = %3
  tail call void @_mi_os_free(ptr noundef %0, i64 noundef %2, ptr noundef nonnull byval(%struct.mi_memid_s) align 8 %1) #20
  br label %9

9:                                                ; preds = %3, %8
  ret void
}